; Function Attrs: mustprogress nofree norecurse nosync nounwind null_pointer_is_valid sspstrong willreturn memory(argmem: read) uwtable
define internal range(i32 -1, 2) i32 @p_compare(ptr noundef readonly captures(none) %0, ptr noundef readonly captures(none) %1) #5 {
  %3 = load i32, ptr %0, align 8
  %4 = load i32, ptr %1, align 8
  %5 = icmp sgt i32 %3, %4
  br i1 %5, label %16, label %6

6:                                                ; preds = %2
  %7 = icmp eq i32 %3, %4
  br i1 %7, label %8, label %16

8:                                                ; preds = %6
  %9 = getelementptr inbounds nuw i8, ptr %0, i64 4
  %10 = load i32, ptr %9, align 4
  %11 = getelementptr inbounds nuw i8, ptr %1, i64 4
  %12 = load i32, ptr %11, align 4
  %13 = icmp ugt i32 %10, %12
  br i1 %13, label %16, label %14

14:                                               ; preds = %8
  %15 = icmp ne i32 %10, %12
  %. = sext i1 %15 to i32
  br label %16

16:                                               ; preds = %6, %14, %8, %2
  %.0 = phi i32 [ 1, %2 ], [ 1, %8 ], [ %., %14 ], [ -1, %6 ]
  ret i32 %.0
}